target datalayout = "e-m:e-p270:32:32-p271:32:32-p272:64:64-i64:64-i128:128-f80:128-n8:16:32:64-S128"
target triple = "x86_64-pc-linux-gnu"

%union.SourceSpan = type { i64 }
%struct.GenContext_ = type { i8, ptr, ptr, ptr, ptr, ptr, ptr, ptr, ptr, ptr, ptr, ptr, ptr, ptr, ptr, ptr, ptr, ptr, ptr, ptr, ptr, ptr, ptr, ptr, ptr, ptr, ptr, ptr, ptr, ptr, ptr, ptr, ptr, %struct.anon.85, i32, i32, %struct.DebugContext, ptr, ptr, ptr, %struct.BEValue, i8, %union.SourceSpan, ptr, ptr, ptr, ptr }
%struct.anon.85 = type { ptr, ptr, ptr }
%struct.DebugContext = type { i16, ptr, ptr, %struct.DebugFile_, ptr, ptr, ptr, ptr }
%struct.DebugFile_ = type { i16, ptr }
%struct.BEValue = type { i8, i32, ptr, ptr, ptr }

; Function Attrs: nounwind uwtable
define dso_local zeroext i1 @llvm_emit_check_block_branch(ptr noundef %0) #0 {
  %2 = alloca i1, align 1
  %3 = alloca ptr, align 8
  store ptr %0, ptr %3, align 8
  %4 = load ptr, ptr %3, align 8
  %5 = getelementptr inbounds %struct.GenContext_, ptr %4, i32 0, i32 10
  %6 = load ptr, ptr %5, align 8
  %7 = icmp ne ptr %6, null
  br i1 %7, label %9, label %8

8:                                                ; preds = %1
  store i1 false, ptr %2, align 1
  br label %29

9:                                                ; preds = %1
  %10 = load ptr, ptr %3, align 8
  %11 = getelementptr inbounds %struct.GenContext_, ptr %10, i32 0, i32 41
  %12 = load i8, ptr %11, align 8
  %13 = and i8 %12, 1
  %14 = trunc i8 %13 to i1
  br i1 %14, label %28, label %15

15:                                               ; preds = %9
  %16 = load ptr, ptr %3, align 8
  %17 = getelementptr inbounds %struct.GenContext_, ptr %16, i32 0, i32 10
  %18 = load ptr, ptr %17, align 8
  %19 = call ptr @LLVMBasicBlockAsValue(ptr noundef %18)
  %20 = call ptr @LLVMGetFirstUse(ptr noundef %19)
  %21 = icmp ne ptr %20, null
  br i1 %21, label %28, label %22

22:                                               ; preds = %15
  %23 = load ptr, ptr %3, align 8
  %24 = getelementptr inbounds %struct.GenContext_, ptr %23, i32 0, i32 10
  %25 = load ptr, ptr %24, align 8
  call void @LLVMDeleteBasicBlock(ptr noundef %25)
  %26 = load ptr, ptr %3, align 8
  %27 = getelementptr inbounds %struct.GenContext_, ptr %26, i32 0, i32 10
  store ptr null, ptr %27, align 8
  store i1 false, ptr %2, align 1
  br label %29

28:                                               ; preds = %15, %9
  store i1 true, ptr %2, align 1
  br label %29

29:                                               ; preds = %28, %22, %8
  %30 = load i1, ptr %2, align 1
  ret i1 %30
}

; Function Attrs: nounwind uwtable
define dso_local void @llvm_emit_br(ptr noundef %0, ptr noundef %1) #0 {
  %3 = alloca ptr, align 8
  %4 = alloca ptr, align 8
  store ptr %0, ptr %3, align 8
  store ptr %1, ptr %4, align 8
  %5 = load ptr, ptr %3, align 8
  %6 = call zeroext i1 @llvm_emit_check_block_branch(ptr noundef %5)
  br i1 %6, label %8, label %7

7:                                                ; preds = %2
  br label %16

8:                                                ; preds = %2
  %9 = load ptr, ptr %3, align 8
  %10 = getelementptr inbounds %struct.GenContext_, ptr %9, i32 0, i32 10
  store ptr null, ptr %10, align 8
  %11 = load ptr, ptr %3, align 8
  %12 = getelementptr inbounds %struct.GenContext_, ptr %11, i32 0, i32 8
  %13 = load ptr, ptr %12, align 8
  %14 = load ptr, ptr %4, align 8
  %15 = call ptr @LLVMBuildBr(ptr noundef %13, ptr noundef %14)
  br label %16

16:                                               ; preds = %8, %7
  ret void
}