; Function Attrs: nounwind uwtable
define dso_local void @llvm_emit_br(ptr nocapture noundef %0, ptr noundef %1) local_unnamed_addr #0 {
  %3 = getelementptr inbounds i8, ptr %0, i64 80
  %4 = load ptr, ptr %3, align 8
  %.not.i = icmp eq ptr %4, null
  br i1 %.not.i, label %llvm_emit_check_block_branch.exit, label %5

5:                                                ; preds = %2
  %6 = getelementptr inbounds i8, ptr %0, i64 424
  %7 = load i8, ptr %6, align 8
  %8 = trunc i8 %7 to i1
  br i1 %8, label %14, label %9

9:                                                ; preds = %5
  %10 = tail call ptr @LLVMBasicBlockAsValue(ptr noundef nonnull %4) #7
  %11 = tail call ptr @LLVMGetFirstUse(ptr noundef %10) #7
  %.not7.i = icmp eq ptr %11, null
  br i1 %.not7.i, label %12, label %14

12:                                               ; preds = %9
  %13 = load ptr, ptr %3, align 8
  tail call void @LLVMDeleteBasicBlock(ptr noundef %13) #7
  store ptr null, ptr %3, align 8
  br label %llvm_emit_check_block_branch.exit

14:                                               ; preds = %9, %5
  store ptr null, ptr %3, align 8
  %15 = getelementptr inbounds i8, ptr %0, i64 64
  %16 = load ptr, ptr %15, align 8
  %17 = tail call ptr @LLVMBuildBr(ptr noundef %16, ptr noundef %1) #7
  br label %llvm_emit_check_block_branch.exit

llvm_emit_check_block_branch.exit:                ; preds = %12, %2, %14
  ret void
}